; Function Attrs: mustprogress nofree norecurse nosync nounwind willreturn memory(argmem: write) uwtable
define void @_ZN6icu_776number9Precision20constructSignificantEii(ptr dead_on_unwind noalias writable writeonly sret(%"class.icu_77::number::Precision") align 8 captures(none) initializes((0, 4), (8, 28)) %0, i32 noundef %1, i32 noundef %2) local_unnamed_addr #11 align 2 {
  %4 = trunc i32 %1 to i16
  %5 = trunc i32 %2 to i16
  store i32 3, ptr %0, align 8, !tbaa !27
  %6 = getelementptr inbounds nuw i8, ptr %0, i64 8
  store i16 -1, ptr %6, align 8
  %.sroa.5.0..sroa_idx2 = getelementptr inbounds nuw i8, ptr %0, i64 10
  store i16 -1, ptr %.sroa.5.0..sroa_idx2, align 2
  %.sroa.6.0..sroa_idx3 = getelementptr inbounds nuw i8, ptr %0, i64 12
  store i16 %4, ptr %.sroa.6.0..sroa_idx3, align 4
  %.sroa.7.0..sroa_idx4 = getelementptr inbounds nuw i8, ptr %0, i64 14
  store i16 %5, ptr %.sroa.7.0..sroa_idx4, align 2
  %.sroa.85.0..sroa_idx = getelementptr inbounds nuw i8, ptr %0, i64 16
  store i64 0, ptr %.sroa.85.0..sroa_idx, align 8, !tbaa !17
  %7 = getelementptr inbounds nuw i8, ptr %0, i64 24
  store i32 0, ptr %7, align 8, !tbaa !31
  ret void
}